target datalayout = "e-m:e-p270:32:32-p271:32:32-p272:64:64-i64:64-i128:128-f80:128-n8:16:32:64-S128"
target triple = "x86_64-pc-linux-gnu"

@.str.14 = private unnamed_addr constant [3 x i8] c"en\00", align 1
@.str.15 = private unnamed_addr constant [3 x i8] c"US\00", align 1
@.str.16 = private unnamed_addr constant [25 x i32] [i32 78, i32 111, i32 32, i32 99, i32 111, i32 112, i32 121, i32 114, i32 105, i32 103, i32 104, i32 116, i32 44, i32 32, i32 117, i32 115, i32 101, i32 32, i32 102, i32 114, i32 101, i32 101, i32 108, i32 121, i32 0], align 4

; Function Attrs: nounwind uwtable
define internal i32 @SetTextTags(ptr noundef %0, ptr noundef %1) #0 {
  %3 = alloca ptr, align 8
  %4 = alloca ptr, align 8
  %5 = alloca ptr, align 8
  %6 = alloca ptr, align 8
  %7 = alloca i32, align 4
  %8 = alloca ptr, align 8
  store ptr %0, ptr %3, align 8
  store ptr %1, ptr %4, align 8
  store i32 0, ptr %7, align 4
  %9 = load ptr, ptr %3, align 8
  %10 = call ptr @cmsGetProfileContextID(ptr noundef %9)
  store ptr %10, ptr %8, align 8
  %11 = load ptr, ptr %8, align 8
  %12 = call ptr @cmsMLUalloc(ptr noundef %11, i32 noundef 1)
  store ptr %12, ptr %5, align 8
  %13 = load ptr, ptr %8, align 8
  %14 = call ptr @cmsMLUalloc(ptr noundef %13, i32 noundef 1)
  store ptr %14, ptr %6, align 8
  %15 = load ptr, ptr %5, align 8
  %16 = icmp eq ptr %15, null
  br i1 %16, label %20, label %17

17:                                               ; preds = %2
  %18 = load ptr, ptr %6, align 8
  %19 = icmp eq ptr %18, null
  br i1 %19, label %20, label %21

20:                                               ; preds = %17, %2
  br label %45

21:                                               ; preds = %17
  %22 = load ptr, ptr %5, align 8
  %23 = load ptr, ptr %4, align 8
  %24 = call i32 @cmsMLUsetWide(ptr noundef %22, ptr noundef @.str.14, ptr noundef @.str.15, ptr noundef %23)
  %25 = icmp ne i32 %24, 0
  br i1 %25, label %27, label %26

26:                                               ; preds = %21
  br label %45

27:                                               ; preds = %21
  %28 = load ptr, ptr %6, align 8
  %29 = call i32 @cmsMLUsetWide(ptr noundef %28, ptr noundef @.str.14, ptr noundef @.str.15, ptr noundef @.str.16)
  %30 = icmp ne i32 %29, 0
  br i1 %30, label %32, label %31

31:                                               ; preds = %27
  br label %45

32:                                               ; preds = %27
  %33 = load ptr, ptr %3, align 8
  %34 = load ptr, ptr %5, align 8
  %35 = call i32 @cmsWriteTag(ptr noundef %33, i32 noundef 1684370275, ptr noundef %34)
  %36 = icmp ne i32 %35, 0
  br i1 %36, label %38, label %37

37:                                               ; preds = %32
  br label %45

38:                                               ; preds = %32
  %39 = load ptr, ptr %3, align 8
  %40 = load ptr, ptr %6, align 8
  %41 = call i32 @cmsWriteTag(ptr noundef %39, i32 noundef 1668313716, ptr noundef %40)
  %42 = icmp ne i32 %41, 0
  br i1 %42, label %44, label %43

43:                                               ; preds = %38
  br label %45

44:                                               ; preds = %38
  store i32 1, ptr %7, align 4
  br label %45

45:                                               ; preds = %44, %43, %37, %31, %26, %20
  %46 = load ptr, ptr %5, align 8
  %47 = icmp ne ptr %46, null
  br i1 %47, label %48, label %50

48:                                               ; preds = %45
  %49 = load ptr, ptr %5, align 8
  call void @cmsMLUfree(ptr noundef %49)
  br label %50

50:                                               ; preds = %48, %45
  %51 = load ptr, ptr %6, align 8
  %52 = icmp ne ptr %51, null
  br i1 %52, label %53, label %55

53:                                               ; preds = %50
  %54 = load ptr, ptr %6, align 8
  call void @cmsMLUfree(ptr noundef %54)
  br label %55

55:                                               ; preds = %53, %50
  %56 = load i32, ptr %7, align 4
  ret i32 %56
}