; Function Attrs: nounwind uwtable
define internal fastcc range(i32 0, 2) i32 @SetTextTags(ptr noundef %0, ptr noundef %1) unnamed_addr #0 {
  %3 = tail call ptr @cmsGetProfileContextID(ptr noundef %0) #7
  %4 = tail call ptr @cmsMLUalloc(ptr noundef %3, i32 noundef 1) #7
  %5 = tail call ptr @cmsMLUalloc(ptr noundef %3, i32 noundef 1) #7
  %6 = icmp eq ptr %4, null
  %7 = icmp eq ptr %5, null
  %or.cond = select i1 %6, i1 true, i1 %7
  br i1 %or.cond, label %16, label %8

8:                                                ; preds = %2
  %9 = tail call i32 @cmsMLUsetWide(ptr noundef nonnull %4, ptr noundef nonnull @.str.14, ptr noundef nonnull @.str.15, ptr noundef %1) #7
  %.not = icmp eq i32 %9, 0
  br i1 %.not, label %.thread, label %10

10:                                               ; preds = %8
  %11 = tail call i32 @cmsMLUsetWide(ptr noundef nonnull %5, ptr noundef nonnull @.str.14, ptr noundef nonnull @.str.15, ptr noundef nonnull @.str.16) #7
  %.not20 = icmp eq i32 %11, 0
  br i1 %.not20, label %.thread, label %12

12:                                               ; preds = %10
  %13 = tail call i32 @cmsWriteTag(ptr noundef %0, i32 noundef 1684370275, ptr noundef nonnull %4) #7
  %.not21 = icmp eq i32 %13, 0
  br i1 %.not21, label %.thread, label %14

14:                                               ; preds = %12
  %15 = tail call i32 @cmsWriteTag(ptr noundef %0, i32 noundef 1668313716, ptr noundef nonnull %5) #7
  %.not22 = icmp ne i32 %15, 0
  %spec.select = zext i1 %.not22 to i32
  br label %.thread

16:                                               ; preds = %2
  br i1 %6, label %17, label %.thread

.thread:                                          ; preds = %8, %10, %12, %14, %16
  %.026 = phi i32 [ 0, %16 ], [ %spec.select, %14 ], [ 0, %8 ], [ 0, %10 ], [ 0, %12 ]
  tail call void @cmsMLUfree(ptr noundef nonnull %4) #7
  br label %17

17:                                               ; preds = %.thread, %16
  %.027 = phi i32 [ %.026, %.thread ], [ 0, %16 ]
  br i1 %7, label %19, label %18

18:                                               ; preds = %17
  tail call void @cmsMLUfree(ptr noundef nonnull %5) #7
  br label %19

19:                                               ; preds = %18, %17
  ret i32 %.027
}